; ModuleID = '51/787.c'
source_filename = "51/787.c"
target datalayout = "e-m:e-p270:32:32-p271:32:32-p272:64:64-i64:64-f80:128-n8:16:32:64-S128"
target triple = "x86_64-pc-linux-gnu"

@.str = private unnamed_addr constant [3 x i8] c"%d\00", align 1
@.str.1 = private unnamed_addr constant [3 x i8] c"NO\00", align 1
@.str.2 = private unnamed_addr constant [4 x i8] c"%d\0A\00", align 1

; Function Attrs: noinline nounwind uwtable
define dso_local i32 @main() #0 {
  %1 = alloca i32, align 4
  %2 = alloca [500 x i8], align 16
  %3 = alloca [5 x i8], align 1
  %4 = alloca [500 x [5 x i8]], align 16
  %5 = alloca i8, align 1
  %6 = alloca [500 x i32], align 16
  %7 = alloca i32, align 4
  %8 = alloca i32, align 4
  %9 = alloca i32, align 4
  %10 = alloca i32, align 4
  store i32 0, i32* %1, align 4
  %11 = bitcast [500 x [5 x i8]]* %4 to i8*
  call void @llvm.memset.p0i8.i64(i8* align 16 %11, i8 0, i64 2500, i1 false)
  %12 = bitcast [500 x i32]* %6 to i8*
  call void @llvm.memset.p0i8.i64(i8* align 16 %12, i8 0, i64 2000, i1 false)
  store i32 0, i32* %10, align 4
  %13 = call i32 (i8*, ...) @__isoc99_scanf(i8* getelementptr inbounds ([3 x i8], [3 x i8]* @.str, i64 0, i64 0), i32* %7)
  %14 = call i32 @getchar()
  %15 = getelementptr inbounds [500 x i8], [500 x i8]* %2, i64 0, i64 0
  %16 = call i32 (i8*, ...) bitcast (i32 (...)* @gets to i32 (i8*, ...)*)(i8* %15)
  store i32 0, i32* %8, align 4
  br label %17

17:                                               ; preds = %114, %0
  %18 = load i32, i32* %8, align 4
  %19 = load i32, i32* %7, align 4
  %20 = add nsw i32 %18, %19
  %21 = sub nsw i32 %20, 1
  %22 = sext i32 %21 to i64
  %23 = getelementptr inbounds [500 x i8], [500 x i8]* %2, i64 0, i64 %22
  %24 = load i8, i8* %23, align 1
  %25 = icmp ne i8 %24, 0
  br i1 %25, label %26, label %117

26:                                               ; preds = %17
  store i32 0, i32* %9, align 4
  br label %27

27:                                               ; preds = %41, %26
  %28 = load i32, i32* %9, align 4
  %29 = load i32, i32* %7, align 4
  %30 = icmp slt i32 %28, %29
  br i1 %30, label %31, label %44

31:                                               ; preds = %27
  %32 = load i32, i32* %8, align 4
  %33 = load i32, i32* %9, align 4
  %34 = add nsw i32 %32, %33
  %35 = sext i32 %34 to i64
  %36 = getelementptr inbounds [500 x i8], [500 x i8]* %2, i64 0, i64 %35
  %37 = load i8, i8* %36, align 1
  %38 = load i32, i32* %9, align 4
  %39 = sext i32 %38 to i64
  %40 = getelementptr inbounds [5 x i8], [5 x i8]* %3, i64 0, i64 %39
  store i8 %37, i8* %40, align 1
  br label %41

41:                                               ; preds = %31
  %42 = load i32, i32* %9, align 4
  %43 = add nsw i32 %42, 1
  store i32 %43, i32* %9, align 4
  br label %27

44:                                               ; preds = %27
  store i32 0, i32* %9, align 4
  br label %45

45:                                               ; preds = %79, %44
  %46 = load i32, i32* %9, align 4
  %47 = sext i32 %46 to i64
  %48 = getelementptr inbounds [500 x [5 x i8]], [500 x [5 x i8]]* %4, i64 0, i64 %47
  %49 = getelementptr inbounds [5 x i8], [5 x i8]* %48, i64 0, i64 0
  %50 = load i8, i8* %49, align 1
  %51 = icmp ne i8 %50, 0
  br i1 %51, label %52, label %82

52:                                               ; preds = %45
  %53 = getelementptr inbounds [5 x i8], [5 x i8]* %3, i64 0, i64 0
  %54 = load i32, i32* %9, align 4
  %55 = sext i32 %54 to i64
  %56 = getelementptr inbounds [500 x [5 x i8]], [500 x [5 x i8]]* %4, i64 0, i64 %55
  %57 = getelementptr inbounds [5 x i8], [5 x i8]* %56, i64 0, i64 0
  %58 = call i32 @strcmp(i8* %53, i8* %57) #5
  %59 = icmp ne i32 %58, 0
  br i1 %59, label %78, label %60

60:                                               ; preds = %52
  %61 = load i32, i32* %9, align 4
  %62 = sext i32 %61 to i64
  %63 = getelementptr inbounds [500 x i32], [500 x i32]* %6, i64 0, i64 %62
  %64 = load i32, i32* %63, align 4
  %65 = add nsw i32 %64, 1
  store i32 %65, i32* %63, align 4
  %66 = load i32, i32* %9, align 4
  %67 = sext i32 %66 to i64
  %68 = getelementptr inbounds [500 x i32], [500 x i32]* %6, i64 0, i64 %67
  %69 = load i32, i32* %68, align 4
  %70 = load i32, i32* %10, align 4
  %71 = icmp sgt i32 %69, %70
  br i1 %71, label %72, label %77

72:                                               ; preds = %60
  %73 = load i32, i32* %9, align 4
  %74 = sext i32 %73 to i64
  %75 = getelementptr inbounds [500 x i32], [500 x i32]* %6, i64 0, i64 %74
  %76 = load i32, i32* %75, align 4
  store i32 %76, i32* %10, align 4
  br label %77

77:                                               ; preds = %72, %60
  br label %82

78:                                               ; preds = %52
  br label %79

79:                                               ; preds = %78
  %80 = load i32, i32* %9, align 4
  %81 = add nsw i32 %80, 1
  store i32 %81, i32* %9, align 4
  br label %45

82:                                               ; preds = %77, %45
  %83 = load i32, i32* %9, align 4
  %84 = sext i32 %83 to i64
  %85 = getelementptr inbounds [500 x [5 x i8]], [500 x [5 x i8]]* %4, i64 0, i64 %84
  %86 = getelementptr inbounds [5 x i8], [5 x i8]* %85, i64 0, i64 0
  %87 = load i8, i8* %86, align 1
  %88 = icmp ne i8 %87, 0
  br i1 %88, label %113, label %89

89:                                               ; preds = %82
  %90 = load i32, i32* %9, align 4
  %91 = sext i32 %90 to i64
  %92 = getelementptr inbounds [500 x [5 x i8]], [500 x [5 x i8]]* %4, i64 0, i64 %91
  %93 = getelementptr inbounds [5 x i8], [5 x i8]* %92, i64 0, i64 0
  %94 = getelementptr inbounds [5 x i8], [5 x i8]* %3, i64 0, i64 0
  %95 = call i8* @strcpy(i8* %93, i8* %94) #6
  %96 = load i32, i32* %9, align 4
  %97 = sext i32 %96 to i64
  %98 = getelementptr inbounds [500 x i32], [500 x i32]* %6, i64 0, i64 %97
  %99 = load i32, i32* %98, align 4
  %100 = add nsw i32 %99, 1
  store i32 %100, i32* %98, align 4
  %101 = load i32, i32* %9, align 4
  %102 = sext i32 %101 to i64
  %103 = getelementptr inbounds [500 x i32], [500 x i32]* %6, i64 0, i64 %102
  %104 = load i32, i32* %103, align 4
  %105 = load i32, i32* %10, align 4
  %106 = icmp sgt i32 %104, %105
  br i1 %106, label %107, label %112

107:                                              ; preds = %89
  %108 = load i32, i32* %9, align 4
  %109 = sext i32 %108 to i64
  %110 = getelementptr inbounds [500 x i32], [500 x i32]* %6, i64 0, i64 %109
  %111 = load i32, i32* %110, align 4
  store i32 %111, i32* %10, align 4
  br label %112

112:                                              ; preds = %107, %89
  br label %113

113:                                              ; preds = %112, %82
  br label %114

114:                                              ; preds = %113
  %115 = load i32, i32* %8, align 4
  %116 = add nsw i32 %115, 1
  store i32 %116, i32* %8, align 4
  br label %17

117:                                              ; preds = %17
  %118 = load i32, i32* %10, align 4
  %119 = icmp eq i32 %118, 1
  br i1 %119, label %120, label %122

120:                                              ; preds = %117
  %121 = call i32 (i8*, ...) @printf(i8* getelementptr inbounds ([3 x i8], [3 x i8]* @.str.1, i64 0, i64 0))
  br label %150

122:                                              ; preds = %117
  %123 = load i32, i32* %10, align 4
  %124 = call i32 (i8*, ...) @printf(i8* getelementptr inbounds ([4 x i8], [4 x i8]* @.str.2, i64 0, i64 0), i32 %123)
  store i32 0, i32* %9, align 4
  br label %125

125:                                              ; preds = %146, %122
  %126 = load i32, i32* %9, align 4
  %127 = sext i32 %126 to i64
  %128 = getelementptr inbounds [500 x [5 x i8]], [500 x [5 x i8]]* %4, i64 0, i64 %127
  %129 = getelementptr inbounds [5 x i8], [5 x i8]* %128, i64 0, i64 0
  %130 = load i8, i8* %129, align 1
  %131 = icmp ne i8 %130, 0
  br i1 %131, label %132, label %149

132:                                              ; preds = %125
  %133 = load i32, i32* %9, align 4
  %134 = sext i32 %133 to i64
  %135 = getelementptr inbounds [500 x i32], [500 x i32]* %6, i64 0, i64 %134
  %136 = load i32, i32* %135, align 4
  %137 = load i32, i32* %10, align 4
  %138 = icmp eq i32 %136, %137
  br i1 %138, label %139, label %145

139:                                              ; preds = %132
  %140 = load i32, i32* %9, align 4
  %141 = sext i32 %140 to i64
  %142 = getelementptr inbounds [500 x [5 x i8]], [500 x [5 x i8]]* %4, i64 0, i64 %141
  %143 = getelementptr inbounds [5 x i8], [5 x i8]* %142, i64 0, i64 0
  %144 = call i32 @puts(i8* %143)
  br label %145

145:                                              ; preds = %139, %132
  br label %146

146:                                              ; preds = %145
  %147 = load i32, i32* %9, align 4
  %148 = add nsw i32 %147, 1
  store i32 %148, i32* %9, align 4
  br label %125

149:                                              ; preds = %125
  br label %150

150:                                              ; preds = %149, %120
  %151 = load i32, i32* %1, align 4
  ret i32 %151
}

; Function Attrs: argmemonly nounwind willreturn
declare void @llvm.memset.p0i8.i64(i8* nocapture writeonly, i8, i64, i1 immarg) #1

declare dso_local i32 @__isoc99_scanf(i8*, ...) #2

declare dso_local i32 @getchar() #2

declare dso_local i32 @gets(...) #2

; Function Attrs: nounwind readonly
declare dso_local i32 @strcmp(i8*, i8*) #3

; Function Attrs: nounwind
declare dso_local i8* @strcpy(i8*, i8*) #4

declare dso_local i32 @printf(i8*, ...) #2

declare dso_local i32 @puts(i8*) #2


!llvm.module.flags = !{!0}
!llvm.ident = !{!1}

!0 = !{i32 1, !"wchar_size", i32 4}
!1 = !{!"clang version 10.0.0-4ubuntu1 "}
